(S'derakhshian log sample'
p0
ccopy_reg
_reconstructor
p1
(cmodel.daw2
DawModel2
p2
c__builtin__
object
p3
Ntp4
Rp5
(dp6
S'update_counter'
p7
I0
sS'rewards'
p8
(dp9
g1
(cmodel.daw
DawState
p10
g3
Ntp11
Rp12
(dp13
S'images'
p14
(S'../data/test01/0-1.jpg'
p15
S'../data/test01/0-2.jpg'
p16
tp17
sS'id'
p18
I0
sS'desc'
p19
S'im first one'
p20
sb(dp21
g1
(cmodel.daw
DawAction
p22
g3
Ntp23
Rp24
(dp25
S'index'
p26
I0
sg18
I0
sS'key'
p27
S'lshift'
p28
sS'name'
p29
S'left'
p30
sb(dp31
g12
I0
sg1
(g10
g3
Ntp32
Rp33
(dp34
g14
(S'../data/test01/1-1.jpg'
p35
S'../data/test01/1-2.jpg'
p36
tp37
sg18
I1
sg19
S'im left one'
p38
sbI0
sg1
(g10
g3
Ntp39
Rp40
(dp41
g14
(S'../data/test01/2-1.jpg'
p42
S'../data/test01/2-2.jpg'
p43
tp44
sg18
I2
sg19
S'im right one'
p45
sbI0
sg1
(g10
g3
Ntp46
Rp47
(dp48
g14
(tsg18
I3
sg19
S'im reward state'
p49
sbI1
sg1
(g10
g3
Ntp50
Rp51
(dp52
g14
(tsg18
I4
sg19
S'im nonreward state'
p53
sbI0
ssg1
(g22
g3
Ntp54
Rp55
(dp56
g26
I1
sg18
I1
sg27
S'rshift'
p57
sg29
S'right'
p58
sb(dp59
g12
I0
sg33
I0
sg40
I0
sg47
I1
sg51
I0
sssg33
(dp60
g24
(dp61
g12
I0
sg33
I0
sg40
I0
sg47
I1
sg51
I0
ssg55
(dp62
g12
I0
sg33
I0
sg40
I0
sg47
I1
sg51
I0
sssg40
(dp63
g24
(dp64
g12
I0
sg33
I0
sg40
I0
sg47
I1
sg51
I0
ssg55
(dp65
g12
I0
sg33
I0
sg40
I0
sg47
I1
sg51
I0
sssg47
(dp66
sg51
(dp67
ssS'terminal_states'
p68
c__builtin__
set
p69
((lp70
g47
ag51
atp71
Rp72
sS'lost_path'
p73
S'../data/test01/lost.png'
p74
sS'actions'
p75
(lp76
g24
ag55
asS'states'
p77
(lp78
g12
ag33
ag40
ag47
ag51
asS'update_round'
p79
I15
sS'rewards_history'
p80
(lp81
(lp82
F0.7
aF0.3
aF0.3
aF0.3
aa(lp83
F0.3
aF0.7
aF0.3
aF0.3
aa(lp84
F0.3
aF0.3
aF0.7
aF0.3
aa(lp85
F0.3
aF0.3
aF0.7
aF0.3
aa(lp86
F0.7
aF0.3
aF0.3
aF0.3
aa(lp87
F0.3
aF0.7
aF0.3
aF0.3
aa(lp88
F0.7
aF0.3
aF0.3
aF0.3
aa(lp89
F0.3
aF0.3
aF0.7
aF0.3
aa(lp90
F0.3
aF0.7
aF0.3
aF0.3
aa(lp91
F0.3
aF0.3
aF0.7
aF0.3
aa(lp92
F0.7
aF0.3
aF0.3
aF0.3
aa(lp93
F0.7
aF0.3
aF0.3
aF0.3
aa(lp94
F0.3
aF0.3
aF0.7
aF0.3
aa(lp95
F0.3
aF0.3
aF0.3
aF0.7
aasS'transitions'
p96
(dp97
g12
(dp98
g24
(dp99
g12
I0
sg33
F0.7
sg40
F0.3
sg47
I0
sg51
I0
ssg55
(dp100
g12
I0
sg33
F0.3
sg40
F0.7
sg47
I0
sg51
I0
sssg33
(dp101
g24
(dp102
g12
I0
sg33
I0
sg40
I0
sg47
F0.3
sg51
F0.7
ssg55
(dp103
g12
I0
sg33
I0
sg40
I0
sg47
F0.3
sg51
F0.7
sssg40
(dp104
g24
(dp105
g12
I0
sg33
I0
sg40
I0
sg47
F0.3
sg51
F0.7
ssg55
(dp106
g12
I0
sg33
I0
sg40
I0
sg47
F0.7
sg51
F0.3
sssg47
(dp107
sg51
(dp108
ssS'reward_path'
p109
S'../data/test01/reward.png'
p110
sS'initial_states'
p111
g69
((lp112
g12
atp113
Rp114
sb(lp115
(dp116
g8
(lp117
I0
aI0
asS'response_times'
p118
(lp119
F0.6271071434020996
aF0.32544803619384766
asS'exit_status'
p120
S'normal'
p121
sg75
(lp122
g55
ag24
asg77
(lp123
g12
ag40
ag51
asS'type'
p124
S'trial'
p125
sa(dp126
g8
(lp127
I0
aI1
asg118
(lp128
F0.444119930267334
aF0.30200695991516113
asg120
g121
sg75
(lp129
g55
ag24
asg77
(lp130
g12
ag40
ag47
asg124
g125
sa(dp131
g8
(lp132
I0
aI0
asg118
(lp133
F0.6112651824951172
aF0.5565919876098633
asg120
g121
sg75
(lp134
g55
ag24
asg77
(lp135
g12
ag40
ag51
asg124
g125
sa(dp136
g8
(lp137
I0
aI0
asg118
(lp138
F0.46392393112182617
aF0.2550640106201172
asg120
g121
sg75
(lp139
g55
ag55
asg77
(lp140
g12
ag40
ag51
asg124
g125
sa(dp141
g8
(lp142
I0
aI0
asg118
(lp143
F0.14499402046203613
aF0.6419260501861572
asg120
g121
sg75
(lp144
g55
ag24
asg77
(lp145
g12
ag33
ag51
asg124
g125
sa(dp146
g8
(lp147
I0
aI0
asg118
(lp148
F0.4566769599914551
aF0.25332212448120117
asg120
g121
sg75
(lp149
g55
ag55
asg77
(lp150
g12
ag33
ag51
asg124
g125
sa(dp151
g8
(lp152
I0
aI1
asg118
(lp153
F0.2517890930175781
aF0.5504388809204102
asg120
g121
sg75
(lp154
g55
ag24
asg77
(lp155
g12
ag40
ag47
asg124
g125
sa(dp156
g8
(lp157
I0
aI0
asg118
(lp158
F0.7756738662719727
aF0.43118906021118164
asg120
g121
sg75
(lp159
g55
ag55
asg77
(lp160
g12
ag33
ag51
asg124
g125
sa(dp161
g8
(lp162
I0
aI1
asg118
(lp163
F0.36693501472473145
aF0.38568711280822754
asg120
g121
sg75
(lp164
g24
ag24
asg77
(lp165
g12
ag33
ag47
asg124
g125
sa(dp166
g8
(lp167
I0
aI0
asg118
(lp168
F0.6879668235778809
aF0.586435079574585
asg120
g121
sg75
(lp169
g24
ag24
asg77
(lp170
g12
ag33
ag51
asg124
g125
sa(dp171
g8
(lp172
I0
aI1
asg118
(lp173
F0.7529430389404297
aF0.3736441135406494
asg120
g121
sg75
(lp174
g24
ag55
asg77
(lp175
g12
ag33
ag47
asg124
g125
sa(dp176
g8
(lp177
I0
aI0
asg118
(lp178
F0.6088287830352783
aF0.6884839534759521
asg120
g121
sg75
(lp179
g55
ag55
asg77
(lp180
g12
ag33
ag51
asg124
g125
sa(dp181
g8
(lp182
I0
aI1
asg118
(lp183
F0.40871286392211914
aF0.38264894485473633
asg120
g121
sg75
(lp184
g55
ag24
asg77
(lp185
g12
ag40
ag47
asg124
g125
sa(dp186
g8
(lp187
I0
aI1
asg118
(lp188
F0.8020799160003662
aF0.3483848571777344
asg120
g121
sg75
(lp189
g24
ag24
asg77
(lp190
g12
ag33
ag47
asg124
g125
sa(dp191
S'answer'
p192
S'3'
p193
sg124
S'best image'
p194
sS'response_time'
p195
F3.5365960597991943
sa(dp196
g192
S'4'
p197
sg124
S'confidence'
p198
sg195
F3.752120018005371
sa(dp199
g8
(lp200
I0
aI0
asg118
(lp201
F0.6261770725250244
aF0.5993609428405762
asg120
g121
sg75
(lp202
g55
ag24
asg77
(lp203
g12
ag40
ag51
asg124
g125
sa(dp204
g8
(lp205
I0
aI1
asg118
(lp206
F0.5950839519500732
aF0.47603702545166016
asg120
g121
sg75
(lp207
g55
ag24
asg77
(lp208
g12
ag33
ag47
asg124
g125
sa(dp209
g8
(lp210
I0
aI0
asg118
(lp211
F0.41359996795654297
aF0.5688028335571289
asg120
g121
sg75
(lp212
g55
ag24
asg77
(lp213
g12
ag33
ag51
asg124
g125
sa(dp214
g8
(lp215
I0
aI0
asg118
(lp216
F0.4469280242919922
aF0.45397090911865234
asg120
g121
sg75
(lp217
g55
ag55
asg77
(lp218
g12
ag40
ag51
asg124
g125
sa(dp219
g8
(lp220
I0
aI0
asg118
(lp221
F0.4584031105041504
aF0.6451129913330078
asg120
g121
sg75
(lp222
g55
ag55
asg77
(lp223
g12
ag40
ag51
asg124
g125
sa(dp224
g8
(lp225
I0
aI1
asg118
(lp226
F0.8875839710235596
aF0.5171740055084229
asg120
g121
sg75
(lp227
g24
ag24
asg77
(lp228
g12
ag33
ag47
asg124
g125
sa(dp229
g8
(lp230
I0
aI1
asg118
(lp231
F0.7474269866943359
aF0.5853428840637207
asg120
g121
sg75
(lp232
g24
ag24
asg77
(lp233
g12
ag33
ag47
asg124
g125
sa(dp234
g8
(lp235
I0
aI1
asg118
(lp236
F0.5420949459075928
aF0.3936328887939453
asg120
g121
sg75
(lp237
g24
ag55
asg77
(lp238
g12
ag33
ag47
asg124
g125
sa(dp239
g8
(lp240
I0
aI1
asg118
(lp241
F0.5844988822937012
aF0.5295190811157227
asg120
g121
sg75
(lp242
g24
ag24
asg77
(lp243
g12
ag33
ag47
asg124
g125
sa(dp244
g8
(lp245
I0
aI0
asg118
(lp246
F0.5967121124267578
aF0.49546003341674805
asg120
g121
sg75
(lp247
g24
ag55
asg77
(lp248
g12
ag33
ag51
asg124
g125
sa(dp249
g8
(lp250
I0
aI0
asg118
(lp251
F0.3440229892730713
aF0.3749661445617676
asg120
g121
sg75
(lp252
g24
ag24
asg77
(lp253
g12
ag40
ag51
asg124
g125
sa(dp254
g8
(lp255
I0
aI1
asg118
(lp256
F0.5169568061828613
aF0.3587510585784912
asg120
g121
sg75
(lp257
g55
ag24
asg77
(lp258
g12
ag33
ag47
asg124
g125
sa(dp259
g8
(lp260
I0
aI1
asg118
(lp261
F0.7712090015411377
aF0.5539150238037109
asg120
g121
sg75
(lp262
g55
ag24
asg77
(lp263
g12
ag33
ag47
asg124
g125
sa(dp264
g8
(lp265
I0
aI0
asg118
(lp266
F0.5354499816894531
aF0.3423469066619873
asg120
g121
sg75
(lp267
g55
ag24
asg77
(lp268
g12
ag40
ag51
asg124
g125
sa(dp269
g8
(lp270
sg118
(lp271
F1.000180959701538
asg120
S'timeout'
p272
sg75
(lp273
sg77
(lp274
g12
asg124
g125
sa(dp275
g192
S'1'
p276
sg124
g194
sg195
F1.8404159545898438
sa(dp277
g192
S'5'
p278
sg124
g198
sg195
F1.7585229873657227
sa(dp279
g8
(lp280
I0
aI0
asg118
(lp281
F0.281933069229126
aF0.3248469829559326
asg120
g121
sg75
(lp282
g24
ag24
asg77
(lp283
g12
ag33
ag51
asg124
g125
sa(dp284
g8
(lp285
I0
aI1
asg118
(lp286
F0.9056780338287354
aF0.7373011112213135
asg120
g121
sg75
(lp287
g55
ag55
asg77
(lp288
g12
ag40
ag47
asg124
g125
sa(dp289
g8
(lp290
I0
aI1
asg118
(lp291
F0.4257948398590088
aF0.3461940288543701
asg120
g121
sg75
(lp292
g55
ag55
asg77
(lp293
g12
ag40
ag47
asg124
g125
sa(dp294
g8
(lp295
I0
aI0
asg118
(lp296
F0.5128631591796875
aF0.6287238597869873
asg120
g121
sg75
(lp297
g55
ag55
asg77
(lp298
g12
ag40
ag51
asg124
g125
sa(dp299
g8
(lp300
I0
aI1
asg118
(lp301
F0.45851683616638184
aF0.8461320400238037
asg120
g121
sg75
(lp302
g55
ag55
asg77
(lp303
g12
ag40
ag47
asg124
g125
sa(dp304
g8
(lp305
I0
aI0
asg118
(lp306
F0.5539579391479492
aF0.5846259593963623
asg120
g121
sg75
(lp307
g55
ag24
asg77
(lp308
g12
ag33
ag51
asg124
g125
sa(dp309
g8
(lp310
I0
aI1
asg118
(lp311
F0.4127328395843506
aF0.7967479228973389
asg120
g121
sg75
(lp312
g24
ag55
asg77
(lp313
g12
ag33
ag47
asg124
g125
sa(dp314
g8
(lp315
I0
aI0
asg118
(lp316
F0.6660830974578857
aF0.38823890686035156
asg120
g121
sg75
(lp317
g24
ag55
asg77
(lp318
g12
ag33
ag51
asg124
g125
sa(dp319
g8
(lp320
I0
aI1
asg118
(lp321
F0.32474303245544434
aF0.2769749164581299
asg120
g121
sg75
(lp322
g24
ag24
asg77
(lp323
g12
ag33
ag47
asg124
g125
sa(dp324
g8
(lp325
I0
aI1
asg118
(lp326
F0.41748499870300293
aF0.4255671501159668
asg120
g121
sg75
(lp327
g24
ag24
asg77
(lp328
g12
ag33
ag47
asg124
g125
sa(dp329
g8
(lp330
I0
aI1
asg118
(lp331
F0.45023488998413086
aF0.35107898712158203
asg120
g121
sg75
(lp332
g24
ag24
asg77
(lp333
g12
ag40
ag47
asg124
g125
sa(dp334
g8
(lp335
I0
aI0
asg118
(lp336
F0.3554811477661133
aF0.4227161407470703
asg120
g121
sg75
(lp337
g24
ag24
asg77
(lp338
g12
ag33
ag51
asg124
g125
sa(dp339
g8
(lp340
I0
aI0
asg118
(lp341
F0.27568793296813965
aF0.2935791015625
asg120
g121
sg75
(lp342
g24
ag55
asg77
(lp343
g12
ag40
ag51
asg124
g125
sa(dp344
g8
(lp345
I0
aI0
asg118
(lp346
F0.31136202812194824
aF0.4057331085205078
asg120
g121
sg75
(lp347
g24
ag24
asg77
(lp348
g12
ag40
ag51
asg124
g125
sa(dp349
g8
(lp350
I0
asg118
(lp351
F0.5383901596069336
aF1.000133991241455
asg120
g272
sg75
(lp352
g24
asg77
(lp353
g12
ag40
asg124
g125
sa(dp354
g192
g276
sg124
g194
sg195
F2.413580894470215
sa(dp355
g192
g278
sg124
g198
sg195
F1.517359972000122
sa(dp356
g8
(lp357
I0
aI0
asg118
(lp358
F0.3160281181335449
aF0.37706708908081055
asg120
g121
sg75
(lp359
g24
ag55
asg77
(lp360
g12
ag33
ag51
asg124
g125
sa(dp361
g8
(lp362
I0
aI1
asg118
(lp363
F0.5684938430786133
aF0.40967798233032227
asg120
g121
sg75
(lp364
g55
ag24
asg77
(lp365
g12
ag33
ag47
asg124
g125
sa(dp366
g8
(lp367
I0
aI0
asg118
(lp368
F0.5388989448547363
aF0.7794439792633057
asg120
g121
sg75
(lp369
g55
ag55
asg77
(lp370
g12
ag40
ag51
asg124
g125
sa(dp371
g8
(lp372
I0
aI0
asg118
(lp373
F0.7923908233642578
aF0.671442985534668
asg120
g121
sg75
(lp374
g24
ag55
asg77
(lp375
g12
ag40
ag51
asg124
g125
sa(dp376
g8
(lp377
I0
aI0
asg118
(lp378
F0.4853169918060303
aF0.39800500869750977
asg120
g121
sg75
(lp379
g55
ag24
asg77
(lp380
g12
ag33
ag51
asg124
g125
sa(dp381
g8
(lp382
I0
aI1
asg118
(lp383
F0.405163049697876
aF0.19112300872802734
asg120
g121
sg75
(lp384
g55
ag24
asg77
(lp385
g12
ag40
ag47
asg124
g125
sa(dp386
g8
(lp387
sg118
(lp388
F1.0001521110534668
asg120
g272
sg75
(lp389
sg77
(lp390
g12
asg124
g125
sa(dp391
g8
(lp392
I0
aI0
asg118
(lp393
F0.4122929573059082
aF0.4293501377105713
asg120
g121
sg75
(lp394
g24
ag55
asg77
(lp395
g12
ag33
ag51
asg124
g125
sa(dp396
g8
(lp397
I0
aI0
asg118
(lp398
F0.40024304389953613
aF0.37499213218688965
asg120
g121
sg75
(lp399
g24
ag24
asg77
(lp400
g12
ag33
ag51
asg124
g125
sa(dp401
g8
(lp402
I0
aI0
asg118
(lp403
F0.4643280506134033
aF0.32498598098754883
asg120
g121
sg75
(lp404
g24
ag55
asg77
(lp405
g12
ag33
ag51
asg124
g125
sa(dp406
g8
(lp407
I0
aI0
asg118
(lp408
F0.44728708267211914
aF0.4352991580963135
asg120
g121
sg75
(lp409
g24
ag55
asg77
(lp410
g12
ag40
ag51
asg124
g125
sa(dp411
g8
(lp412
I0
aI0
asg118
(lp413
F0.3739790916442871
aF0.31931090354919434
asg120
g121
sg75
(lp414
g24
ag24
asg77
(lp415
g12
ag40
ag51
asg124
g125
sa(dp416
g8
(lp417
I0
aI1
asg118
(lp418
F0.3801910877227783
aF0.3954458236694336
asg120
g121
sg75
(lp419
g24
ag55
asg77
(lp420
g12
ag33
ag47
asg124
g125
sa(dp421
g8
(lp422
I0
aI0
asg118
(lp423
F0.47293591499328613
aF0.3777949810028076
asg120
g121
sg75
(lp424
g24
ag55
asg77
(lp425
g12
ag33
ag51
asg124
g125
sa(dp426
g8
(lp427
I0
aI1
asg118
(lp428
F0.3907740116119385
aF0.4552459716796875
asg120
g121
sg75
(lp429
g24
ag24
asg77
(lp430
g12
ag33
ag47
asg124
g125
sa(dp431
g192
g276
sg124
g194
sg195
F7.757268905639648
sa(dp432
g192
S'2'
p433
sg124
g198
sg195
F2.3123340606689453
sa(dp434
g8
(lp435
I0
aI0
asg118
(lp436
F0.5306589603424072
aF0.3984091281890869
asg120
g121
sg75
(lp437
g24
ag55
asg77
(lp438
g12
ag33
ag51
asg124
g125
sa(dp439
g8
(lp440
I0
aI0
asg118
(lp441
F0.5478529930114746
aF0.5455689430236816
asg120
g121
sg75
(lp442
g55
ag55
asg77
(lp443
g12
ag40
ag51
asg124
g125
sa(dp444
g8
(lp445
I0
aI0
asg118
(lp446
F0.2850630283355713
aF0.8003900051116943
asg120
g121
sg75
(lp447
g55
ag55
asg77
(lp448
g12
ag40
ag51
asg124
g125
sa(dp449
g8
(lp450
I0
aI1
asg118
(lp451
F0.30920886993408203
aF0.24527597427368164
asg120
g121
sg75
(lp452
g55
ag24
asg77
(lp453
g12
ag33
ag47
asg124
g125
sa(dp454
g8
(lp455
I0
aI0
asg118
(lp456
F0.7131791114807129
aF0.4316420555114746
asg120
g121
sg75
(lp457
g55
ag24
asg77
(lp458
g12
ag33
ag51
asg124
g125
sa(dp459
g8
(lp460
I0
aI0
asg118
(lp461
F0.5544960498809814
aF0.33045005798339844
asg120
g121
sg75
(lp462
g24
ag55
asg77
(lp463
g12
ag33
ag51
asg124
g125
sa(dp464
g8
(lp465
I0
aI0
asg118
(lp466
F0.3139629364013672
aF0.24924588203430176
asg120
g121
sg75
(lp467
g24
ag24
asg77
(lp468
g12
ag33
ag51
asg124
g125
sa(dp469
g8
(lp470
I0
aI0
asg118
(lp471
F0.4708290100097656
aF0.6506757736206055
asg120
g121
sg75
(lp472
g55
ag55
asg77
(lp473
g12
ag40
ag51
asg124
g125
sa(dp474
g8
(lp475
I0
aI1
asg118
(lp476
F0.31946897506713867
aF0.18107390403747559
asg120
g121
sg75
(lp477
g55
ag24
asg77
(lp478
g12
ag40
ag47
asg124
g125
sa(dp479
g8
(lp480
I0
aI0
asg118
(lp481
F0.4473998546600342
aF0.33553099632263184
asg120
g121
sg75
(lp482
g55
ag24
asg77
(lp483
g12
ag33
ag51
asg124
g125
sa(dp484
g8
(lp485
I0
aI0
asg118
(lp486
F0.3511650562286377
aF0.22023797035217285
asg120
g121
sg75
(lp487
g55
ag55
asg77
(lp488
g12
ag40
ag51
asg124
g125
sa(dp489
g8
(lp490
I0
asg118
(lp491
F0.024235010147094727
aF1.0001990795135498
asg120
g272
sg75
(lp492
g55
asg77
(lp493
g12
ag40
asg124
g125
sa(dp494
g8
(lp495
I0
aI0
asg118
(lp496
F0.5043480396270752
aF0.5910210609436035
asg120
g121
sg75
(lp497
g55
ag24
asg77
(lp498
g12
ag33
ag51
asg124
g125
sa(dp499
g8
(lp500
I0
aI1
asg118
(lp501
F0.5666770935058594
aF0.7791879177093506
asg120
g121
sg75
(lp502
g55
ag24
asg77
(lp503
g12
ag40
ag47
asg124
g125
sa(dp504
g8
(lp505
I0
aI1
asg118
(lp506
F0.6189050674438477
aF0.7511520385742188
asg120
g121
sg75
(lp507
g55
ag24
asg77
(lp508
g12
ag40
ag47
asg124
g125
sa(dp509
g192
g193
sg124
g194
sg195
F1.9307630062103271
sa(dp510
g192
g197
sg124
g198
sg195
F2.076089859008789
sa(dp511
g8
(lp512
I0
aI1
asg118
(lp513
F0.5714550018310547
aF0.387239933013916
asg120
g121
sg75
(lp514
g55
ag24
asg77
(lp515
g12
ag40
ag47
asg124
g125
sa(dp516
g8
(lp517
I0
aI0
asg118
(lp518
F0.7075319290161133
aF0.5821998119354248
asg120
g121
sg75
(lp519
g24
ag24
asg77
(lp520
g12
ag33
ag51
asg124
g125
sa(dp521
g8
(lp522
I0
aI0
asg118
(lp523
F0.4645700454711914
aF0.48595595359802246
asg120
g121
sg75
(lp524
g24
ag55
asg77
(lp525
g12
ag40
ag51
asg124
g125
sa(dp526
g8
(lp527
I0
aI0
asg118
(lp528
F0.7820799350738525
aF0.36209988594055176
asg120
g121
sg75
(lp529
g55
ag24
asg77
(lp530
g12
ag40
ag51
asg124
g125
sa(dp531
g8
(lp532
I0
aI0
asg118
(lp533
F0.38268518447875977
aF0.2938399314880371
asg120
g121
sg75
(lp534
g55
ag55
asg77
(lp535
g12
ag40
ag51
asg124
g125
sa(dp536
g8
(lp537
I0
aI0
asg118
(lp538
F0.4119279384613037
aF0.3252990245819092
asg120
g121
sg75
(lp539
g55
ag24
asg77
(lp540
g12
ag40
ag51
asg124
g125
sa(dp541
g8
(lp542
I0
aI0
asg118
(lp543
F0.7552039623260498
aF0.24730515480041504
asg120
g121
sg75
(lp544
g24
ag55
asg77
(lp545
g12
ag33
ag51
asg124
g125
sa(dp546
g8
(lp547
I0
aI0
asg118
(lp548
F0.5363759994506836
aF0.5603258609771729
asg120
g121
sg75
(lp549
g24
ag24
asg77
(lp550
g12
ag40
ag51
asg124
g125
sa(dp551
g8
(lp552
I0
aI0
asg118
(lp553
F0.9766530990600586
aF0.20591115951538086
asg120
g121
sg75
(lp554
g24
ag55
asg77
(lp555
g12
ag40
ag51
asg124
g125
sa(dp556
g8
(lp557
I0
aI0
asg118
(lp558
F0.2871580123901367
aF0.2379469871520996
asg120
g121
sg75
(lp559
g55
ag24
asg77
(lp560
g12
ag40
ag51
asg124
g125
sa(dp561
g8
(lp562
I0
aI1
asg118
(lp563
F0.42051100730895996
aF0.4091029167175293
asg120
g121
sg75
(lp564
g55
ag55
asg77
(lp565
g12
ag33
ag47
asg124
g125
sa(dp566
g8
(lp567
I0
aI0
asg118
(lp568
F0.45322203636169434
aF0.29436302185058594
asg120
g121
sg75
(lp569
g55
ag55
asg77
(lp570
g12
ag33
ag51
asg124
g125
sa(dp571
g8
(lp572
I0
aI0
asg118
(lp573
F0.3218250274658203
aF0.2654139995574951
asg120
g121
sg75
(lp574
g55
ag24
asg77
(lp575
g12
ag40
ag51
asg124
g125
sa(dp576
g8
(lp577
I0
aI0
asg118
(lp578
F0.5369930267333984
aF0.24718713760375977
asg120
g121
sg75
(lp579
g24
ag55
asg77
(lp580
g12
ag40
ag51
asg124
g125
sa(dp581
g8
(lp582
I0
aI1
asg118
(lp583
F0.4409329891204834
aF0.3496561050415039
asg120
g121
sg75
(lp584
g24
ag24
asg77
(lp585
g12
ag33
ag47
asg124
g125
sa(dp586
g192
g276
sg124
g194
sg195
F2.722668170928955
sa(dp587
g192
g433
sg124
g198
sg195
F3.2318711280822754
sa(dp588
g8
(lp589
I0
aI1
asg118
(lp590
F0.5313019752502441
aF0.649029016494751
asg120
g121
sg75
(lp591
g24
ag24
asg77
(lp592
g12
ag33
ag47
asg124
g125
sa(dp593
g8
(lp594
I0
aI0
asg118
(lp595
F0.71327805519104
aF0.5786280632019043
asg120
g121
sg75
(lp596
g55
ag55
asg77
(lp597
g12
ag40
ag51
asg124
g125
sa(dp598
g8
(lp599
I0
aI0
asg118
(lp600
F0.4162938594818115
aF0.2201240062713623
asg120
g121
sg75
(lp601
g55
ag24
asg77
(lp602
g12
ag40
ag51
asg124
g125
sa(dp603
g8
(lp604
I0
aI0
asg118
(lp605
F0.6814441680908203
aF0.34245896339416504
asg120
g121
sg75
(lp606
g24
ag24
asg77
(lp607
g12
ag33
ag51
asg124
g125
sa(dp608
g8
(lp609
I0
aI0
asg118
(lp610
F0.4088759422302246
aF0.5084547996520996
asg120
g121
sg75
(lp611
g24
ag24
asg77
(lp612
g12
ag33
ag51
asg124
g125
sa(dp613
g8
(lp614
I0
aI0
asg118
(lp615
F0.3611741065979004
aF0.28769493103027344
asg120
g121
sg75
(lp616
g24
ag55
asg77
(lp617
g12
ag33
ag51
asg124
g125
sa(dp618
g8
(lp619
I0
aI0
asg118
(lp620
F0.3966989517211914
aF0.20002293586730957
asg120
g121
sg75
(lp621
g55
ag24
asg77
(lp622
g12
ag40
ag51
asg124
g125
sa(dp623
g8
(lp624
I0
aI1
asg118
(lp625
F0.3560760021209717
aF0.15589499473571777
asg120
g121
sg75
(lp626
g55
ag55
asg77
(lp627
g12
ag33
ag47
asg124
g125
sa(dp628
g8
(lp629
I0
aI0
asg118
(lp630
F0.7872369289398193
aF0.243621826171875
asg120
g121
sg75
(lp631
g55
ag55
asg77
(lp632
g12
ag40
ag51
asg124
g125
sa(dp633
g8
(lp634
I0
aI1
asg118
(lp635
F0.5908839702606201
aF0.7040359973907471
asg120
g121
sg75
(lp636
g55
ag55
asg77
(lp637
g12
ag33
ag47
asg124
g125
sa(dp638
g8
(lp639
I0
aI1
asg118
(lp640
F0.6682999134063721
aF0.49801206588745117
asg120
g121
sg75
(lp641
g55
ag55
asg77
(lp642
g12
ag33
ag47
asg124
g125
sa(dp643
g8
(lp644
I0
asg118
(lp645
F0.575843095779419
aF1.0002570152282715
asg120
g272
sg75
(lp646
g24
asg77
(lp647
g12
ag40
asg124
g125
sa(dp648
g8
(lp649
I0
aI0
asg118
(lp650
F0.28932690620422363
aF0.7122540473937988
asg120
g121
sg75
(lp651
g55
ag55
asg77
(lp652
g12
ag40
ag51
asg124
g125
sa(dp653
g8
(lp654
I0
aI1
asg118
(lp655
F0.6882419586181641
aF0.8101880550384521
asg120
g121
sg75
(lp656
g55
ag24
asg77
(lp657
g12
ag40
ag47
asg124
g125
sa(dp658
g8
(lp659
I0
aI0
asg118
(lp660
F0.7174608707427979
aF0.9724609851837158
asg120
g121
sg75
(lp661
g24
ag24
asg77
(lp662
g12
ag40
ag51
asg124
g125
sa(dp663
g192
g433
sg124
g194
sg195
F1.9436938762664795
sa(dp664
g192
g197
sg124
g198
sg195
F1.2827200889587402
sa(dp665
g8
(lp666
I0
aI0
asg118
(lp667
F0.49034905433654785
aF0.6162519454956055
asg120
g121
sg75
(lp668
g55
ag55
asg77
(lp669
g12
ag33
ag51
asg124
g125
sa(dp670
g8
(lp671
I0
aI0
asg118
(lp672
F0.977942943572998
aF0.8236699104309082
asg120
g121
sg75
(lp673
g55
ag24
asg77
(lp674
g12
ag40
ag51
asg124
g125
sa(dp675
g8
(lp676
I0
aI1
asg118
(lp677
F0.48620104789733887
aF0.10005402565002441
asg120
g121
sg75
(lp678
g55
ag55
asg77
(lp679
g12
ag33
ag47
asg124
g125
sa(dp680
g8
(lp681
I0
aI0
asg118
(lp682
F0.7521331310272217
aF0.4688730239868164
asg120
g121
sg75
(lp683
g24
ag55
asg77
(lp684
g12
ag33
ag51
asg124
g125
sa(dp685
g8
(lp686
I0
aI0
asg118
(lp687
F0.45262694358825684
aF0.32404088973999023
asg120
g121
sg75
(lp688
g24
ag24
asg77
(lp689
g12
ag33
ag51
asg124
g125
sa(dp690
g8
(lp691
I0
aI0
asg118
(lp692
F0.47880005836486816
aF0.29000401496887207
asg120
g121
sg75
(lp693
g55
ag55
asg77
(lp694
g12
ag40
ag51
asg124
g125
sa(dp695
g8
(lp696
I0
aI0
asg118
(lp697
F0.3744800090789795
aF0.33486509323120117
asg120
g121
sg75
(lp698
g55
ag24
asg77
(lp699
g12
ag40
ag51
asg124
g125
sa(dp700
g8
(lp701
I0
aI0
asg118
(lp702
F0.5977449417114258
aF0.7212059497833252
asg120
g121
sg75
(lp703
g55
ag55
asg77
(lp704
g12
ag33
ag51
asg124
g125
sa(dp705
g8
(lp706
I0
aI1
asg118
(lp707
F0.3784210681915283
aF0.8800299167633057
asg120
g121
sg75
(lp708
g55
ag24
asg77
(lp709
g12
ag40
ag47
asg124
g125
sa(dp710
g8
(lp711
I0
asg118
(lp712
F0.5939409732818604
aF1.0001928806304932
asg120
g272
sg75
(lp713
g24
asg77
(lp714
g12
ag33
asg124
g125
sa(dp715
g8
(lp716
I0
aI0
asg118
(lp717
F0.291179895401001
aF0.7228310108184814
asg120
g121
sg75
(lp718
g24
ag24
asg77
(lp719
g12
ag40
ag51
asg124
g125
sa(dp720
g8
(lp721
I0
aI0
asg118
(lp722
F0.33927106857299805
aF0.5314321517944336
asg120
g121
sg75
(lp723
g55
ag24
asg77
(lp724
g12
ag40
ag51
asg124
g125
sa(dp725
g8
(lp726
I0
aI0
asg118
(lp727
F0.3279550075531006
aF0.6066951751708984
asg120
g121
sg75
(lp728
g24
ag24
asg77
(lp729
g12
ag33
ag51
asg124
g125
sa(dp730
g8
(lp731
I0
aI0
asg118
(lp732
F0.5481619834899902
aF0.4250528812408447
asg120
g121
sg75
(lp733
g24
ag55
asg77
(lp734
g12
ag33
ag51
asg124
g125
sa(dp735
g8
(lp736
I0
aI0
asg118
(lp737
F0.3615541458129883
aF0.24726414680480957
asg120
g121
sg75
(lp738
g24
ag24
asg77
(lp739
g12
ag33
ag51
asg124
g125
sa(dp740
g192
g193
sg124
g194
sg195
F3.2308528423309326
sa(dp741
g192
g433
sg124
g198
sg195
F2.6138949394226074
sa(dp742
g8
(lp743
I0
aI0
asg118
(lp744
F0.5250890254974365
aF0.5495381355285645
asg120
g121
sg75
(lp745
g55
ag55
asg77
(lp746
g12
ag33
ag51
asg124
g125
sa(dp747
g8
(lp748
I0
aI1
asg118
(lp749
F0.6410200595855713
aF0.4213080406188965
asg120
g121
sg75
(lp750
g55
ag24
asg77
(lp751
g12
ag40
ag47
asg124
g125
sa(dp752
g8
(lp753
I0
aI0
asg118
(lp754
F0.45078611373901367
aF0.40784502029418945
asg120
g121
sg75
(lp755
g24
ag24
asg77
(lp756
g12
ag40
ag51
asg124
g125
sa(dp757
g8
(lp758
I0
aI0
asg118
(lp759
F0.5827229022979736
aF0.4696478843688965
asg120
g121
sg75
(lp760
g55
ag24
asg77
(lp761
g12
ag40
ag51
asg124
g125
sa(dp762
g8
(lp763
I0
aI1
asg118
(lp764
F0.4279899597167969
aF0.5029900074005127
asg120
g121
sg75
(lp765
g55
ag55
asg77
(lp766
g12
ag40
ag47
asg124
g125
sa(dp767
g8
(lp768
I0
aI1
asg118
(lp769
F0.8355319499969482
aF0.3223609924316406
asg120
g121
sg75
(lp770
g55
ag55
asg77
(lp771
g12
ag40
ag47
asg124
g125
sa(dp772
g8
(lp773
I0
aI0
asg118
(lp774
F0.38884496688842773
aF0.26555299758911133
asg120
g121
sg75
(lp775
g55
ag55
asg77
(lp776
g12
ag33
ag51
asg124
g125
sa(dp777
g8
(lp778
I0
aI0
asg118
(lp779
F0.4283180236816406
aF0.2666890621185303
asg120
g121
sg75
(lp780
g55
ag55
asg77
(lp781
g12
ag40
ag51
asg124
g125
sa(dp782
g8
(lp783
I0
aI0
asg118
(lp784
F0.31530308723449707
aF0.672111988067627
asg120
g121
sg75
(lp785
g24
ag24
asg77
(lp786
g12
ag33
ag51
asg124
g125
sa(dp787
g8
(lp788
I0
aI0
asg118
(lp789
F0.3521120548248291
aF0.34038305282592773
asg120
g121
sg75
(lp790
g24
ag55
asg77
(lp791
g12
ag33
ag51
asg124
g125
sa(dp792
g8
(lp793
I0
aI1
asg118
(lp794
F0.43825483322143555
aF0.2129230499267578
asg120
g121
sg75
(lp795
g55
ag24
asg77
(lp796
g12
ag40
ag47
asg124
g125
sa(dp797
g8
(lp798
I0
aI1
asg118
(lp799
F0.5175859928131104
aF0.3824191093444824
asg120
g121
sg75
(lp800
g55
ag24
asg77
(lp801
g12
ag40
ag47
asg124
g125
sa(dp802
g8
(lp803
I0
aI1
asg118
(lp804
F0.3826320171356201
aF0.75506591796875
asg120
g121
sg75
(lp805
g55
ag55
asg77
(lp806
g12
ag33
ag47
asg124
g125
sa(dp807
g8
(lp808
I0
aI0
asg118
(lp809
F0.4143941402435303
aF0.39845800399780273
asg120
g121
sg75
(lp810
g55
ag24
asg77
(lp811
g12
ag40
ag51
asg124
g125
sa(dp812
g8
(lp813
I0
aI1
asg118
(lp814
F0.25182080268859863
aF0.20036911964416504
asg120
g121
sg75
(lp815
g55
ag55
asg77
(lp816
g12
ag40
ag47
asg124
g125
sa(dp817
g192
g193
sg124
g194
sg195
F3.2465147972106934
sa(dp818
g192
g197
sg124
g198
sg195
F1.3471760749816895
sa(dp819
g8
(lp820
I0
aI0
asg118
(lp821
F0.4982140064239502
aF0.42247605323791504
asg120
g121
sg75
(lp822
g55
ag55
asg77
(lp823
g12
ag40
ag51
asg124
g125
sa(dp824
g8
(lp825
I0
aI0
asg118
(lp826
F0.7466189861297607
aF0.5183641910552979
asg120
g121
sg75
(lp827
g55
ag24
asg77
(lp828
g12
ag33
ag51
asg124
g125
sa(dp829
g8
(lp830
I0
aI0
asg118
(lp831
F0.39333009719848633
aF0.2301480770111084
asg120
g121
sg75
(lp832
g55
ag55
asg77
(lp833
g12
ag40
ag51
asg124
g125
sa(dp834
g8
(lp835
I0
aI1
asg118
(lp836
F0.24087309837341309
aF0.18943309783935547
asg120
g121
sg75
(lp837
g24
ag55
asg77
(lp838
g12
ag33
ag47
asg124
g125
sa(dp839
g8
(lp840
I0
aI0
asg118
(lp841
F0.4131309986114502
aF0.2163219451904297
asg120
g121
sg75
(lp842
g24
ag24
asg77
(lp843
g12
ag33
ag51
asg124
g125
sa(dp844
g8
(lp845
I0
aI1
asg118
(lp846
F0.26555395126342773
aF0.2676811218261719
asg120
g121
sg75
(lp847
g24
ag55
asg77
(lp848
g12
ag33
ag47
asg124
g125
sa(dp849
g8
(lp850
I0
aI1
asg118
(lp851
F0.36441683769226074
aF0.23848509788513184
asg120
g121
sg75
(lp852
g24
ag24
asg77
(lp853
g12
ag33
ag47
asg124
g125
sa(dp854
g8
(lp855
I0
aI0
asg118
(lp856
F0.32602500915527344
aF0.2272031307220459
asg120
g121
sg75
(lp857
g24
ag24
asg77
(lp858
g12
ag33
ag51
asg124
g125
sa(dp859
g8
(lp860
I0
aI0
asg118
(lp861
F0.23055005073547363
aF0.20605993270874023
asg120
g121
sg75
(lp862
g24
ag55
asg77
(lp863
g12
ag40
ag51
asg124
g125
sa(dp864
g8
(lp865
I0
aI1
asg118
(lp866
F0.5286259651184082
aF0.23766303062438965
asg120
g121
sg75
(lp867
g24
ag24
asg77
(lp868
g12
ag33
ag47
asg124
g125
sa(dp869
g8
(lp870
I0
aI1
asg118
(lp871
F0.3543109893798828
aF0.2074899673461914
asg120
g121
sg75
(lp872
g24
ag24
asg77
(lp873
g12
ag33
ag47
asg124
g125
sa(dp874
g8
(lp875
I0
aI0
asg118
(lp876
F0.38982105255126953
aF0.13547992706298828
asg120
g121
sg75
(lp877
g24
ag24
asg77
(lp878
g12
ag33
ag51
asg124
g125
sa(dp879
g8
(lp880
I0
aI0
asg118
(lp881
F0.3555879592895508
aF0.22366690635681152
asg120
g121
sg75
(lp882
g24
ag55
asg77
(lp883
g12
ag40
ag51
asg124
g125
sa(dp884
g8
(lp885
I0
aI1
asg118
(lp886
F0.25102806091308594
aF0.24643588066101074
asg120
g121
sg75
(lp887
g24
ag55
asg77
(lp888
g12
ag33
ag47
asg124
g125
sa(dp889
g8
(lp890
I0
aI1
asg118
(lp891
F0.3622620105743408
aF0.18262696266174316
asg120
g121
sg75
(lp892
g24
ag24
asg77
(lp893
g12
ag33
ag47
asg124
g125
sa(dp894
g192
g276
sg124
g194
sg195
F2.1271190643310547
sa(dp895
g192
g278
sg124
g198
sg195
F2.0947558879852295
sa(dp896
g8
(lp897
I0
aI0
asg118
(lp898
F0.35936808586120605
aF0.3300809860229492
asg120
g121
sg75
(lp899
g24
ag24
asg77
(lp900
g12
ag33
ag51
asg124
g125
sa(dp901
g8
(lp902
I0
aI0
asg118
(lp903
F0.5641970634460449
aF0.3593270778656006
asg120
g121
sg75
(lp904
g55
ag55
asg77
(lp905
g12
ag40
ag51
asg124
g125
sa(dp906
g8
(lp907
I0
aI1
asg118
(lp908
F0.3045170307159424
aF0.17128396034240723
asg120
g121
sg75
(lp909
g24
ag24
asg77
(lp910
g12
ag40
ag47
asg124
g125
sa(dp911
g8
(lp912
I0
aI1
asg118
(lp913
F0.40436697006225586
aF0.3096020221710205
asg120
g121
sg75
(lp914
g24
ag55
asg77
(lp915
g12
ag40
ag47
asg124
g125
sa(dp916
g8
(lp917
I0
aI1
asg118
(lp918
F0.41417908668518066
aF0.8916218280792236
asg120
g121
sg75
(lp919
g24
ag55
asg77
(lp920
g12
ag33
ag47
asg124
g125
sa(dp921
g8
(lp922
I0
aI0
asg118
(lp923
F0.31979894638061523
aF0.17895007133483887
asg120
g121
sg75
(lp924
g24
ag55
asg77
(lp925
g12
ag33
ag51
asg124
g125
sa(dp926
g8
(lp927
I0
aI0
asg118
(lp928
F0.2531118392944336
aF0.11810493469238281
asg120
g121
sg75
(lp929
g24
ag24
asg77
(lp930
g12
ag33
ag51
asg124
g125
sa(dp931
g8
(lp932
I0
aI0
asg118
(lp933
F0.25513482093811035
aF0.3162269592285156
asg120
g121
sg75
(lp934
g24
ag55
asg77
(lp935
g12
ag33
ag51
asg124
g125
sa(dp936
g8
(lp937
I0
aI1
asg118
(lp938
F0.4831869602203369
aF0.20073795318603516
asg120
g121
sg75
(lp939
g55
ag24
asg77
(lp940
g12
ag40
ag47
asg124
g125
sa(dp941
g8
(lp942
I0
aI0
asg118
(lp943
F0.39748597145080566
aF0.4958798885345459
asg120
g121
sg75
(lp944
g55
ag55
asg77
(lp945
g12
ag33
ag51
asg124
g125
sa(dp946
g8
(lp947
I0
aI1
asg118
(lp948
F0.2622349262237549
aF0.32663702964782715
asg120
g121
sg75
(lp949
g55
ag24
asg77
(lp950
g12
ag33
ag47
asg124
g125
sa(dp951
g8
(lp952
I0
aI0
asg118
(lp953
F0.26931214332580566
aF0.19315314292907715
asg120
g121
sg75
(lp954
g55
ag55
asg77
(lp955
g12
ag40
ag51
asg124
g125
sa(dp956
g8
(lp957
I0
aI0
asg118
(lp958
F0.3322901725769043
aF0.23901104927062988
asg120
g121
sg75
(lp959
g55
ag24
asg77
(lp960
g12
ag33
ag51
asg124
g125
sa(dp961
g8
(lp962
I0
aI0
asg118
(lp963
F0.34563207626342773
aF0.24047279357910156
asg120
g121
sg75
(lp964
g24
ag55
asg77
(lp965
g12
ag33
ag51
asg124
g125
sa(dp966
g8
(lp967
I0
aI1
asg118
(lp968
F0.3356211185455322
aF0.20530200004577637
asg120
g121
sg75
(lp969
g24
ag24
asg77
(lp970
g12
ag40
ag47
asg124
g125
sa(dp971
g192
g276
sg124
g194
sg195
F4.0208899974823
sa(dp972
g192
g193
sg124
g198
sg195
F1.5536110401153564
sa(dp973
g8
(lp974
I0
aI0
asg118
(lp975
F0.6392529010772705
aF0.6806700229644775
asg120
g121
sg75
(lp976
g24
ag55
asg77
(lp977
g12
ag33
ag51
asg124
g125
sa(dp978
g8
(lp979
I0
aI0
asg118
(lp980
F0.4447021484375
aF0.6147639751434326
asg120
g121
sg75
(lp981
g55
ag24
asg77
(lp982
g12
ag40
ag51
asg124
g125
sa(dp983
g8
(lp984
I0
aI1
asg118
(lp985
F0.3887670040130615
aF0.18042492866516113
asg120
g121
sg75
(lp986
g55
ag55
asg77
(lp987
g12
ag40
ag47
asg124
g125
sa(dp988
g8
(lp989
I0
aI0
asg118
(lp990
F0.6434760093688965
aF0.3013589382171631
asg120
g121
sg75
(lp991
g55
ag55
asg77
(lp992
g12
ag40
ag51
asg124
g125
sa(dp993
g8
(lp994
I0
aI1
asg118
(lp995
F0.42992711067199707
aF0.5390410423278809
asg120
g121
sg75
(lp996
g55
ag24
asg77
(lp997
g12
ag40
ag47
asg124
g125
sa(dp998
g8
(lp999
I0
aI0
asg118
(lp1000
F0.30055999755859375
aF0.5986721515655518
asg120
g121
sg75
(lp1001
g55
ag55
asg77
(lp1002
g12
ag40
ag51
asg124
g125
sa(dp1003
g8
(lp1004
I0
aI0
asg118
(lp1005
F0.25699496269226074
aF0.2656548023223877
asg120
g121
sg75
(lp1006
g55
ag24
asg77
(lp1007
g12
ag40
ag51
asg124
g125
sa(dp1008
g8
(lp1009
I0
aI0
asg118
(lp1010
F0.265639066696167
aF0.3009781837463379
asg120
g121
sg75
(lp1011
g24
ag55
asg77
(lp1012
g12
ag33
ag51
asg124
g125
sa(dp1013
g8
(lp1014
I0
aI1
asg118
(lp1015
F0.3628978729248047
aF0.3286428451538086
asg120
g121
sg75
(lp1016
g24
ag24
asg77
(lp1017
g12
ag33
ag47
asg124
g125
sa(dp1018
g8
(lp1019
I0
aI0
asg118
(lp1020
F0.42662596702575684
aF0.3139221668243408
asg120
g121
sg75
(lp1021
g24
ag24
asg77
(lp1022
g12
ag40
ag51
asg124
g125
sa(dp1023
g8
(lp1024
I0
aI0
asg118
(lp1025
F0.3086709976196289
aF0.21013903617858887
asg120
g121
sg75
(lp1026
g24
ag55
asg77
(lp1027
g12
ag40
ag51
asg124
g125
sa(dp1028
g8
(lp1029
I0
aI0
asg118
(lp1030
F0.3179659843444824
aF0.3239591121673584
asg120
g121
sg75
(lp1031
g24
ag55
asg77
(lp1032
g12
ag40
ag51
asg124
g125
sa(dp1033
g8
(lp1034
I0
aI0
asg118
(lp1035
F0.11237096786499023
aF0.5067200660705566
asg120
g121
sg75
(lp1036
g24
ag55
asg77
(lp1037
g12
ag33
ag51
asg124
g125
sa(dp1038
g8
(lp1039
I0
aI1
asg118
(lp1040
F0.42820215225219727
aF0.4292018413543701
asg120
g121
sg75
(lp1041
g55
ag24
asg77
(lp1042
g12
ag33
ag47
asg124
g125
sa(dp1043
g8
(lp1044
I0
aI1
asg118
(lp1045
F0.6218059062957764
aF0.31944799423217773
asg120
g121
sg75
(lp1046
g55
ag55
asg77
(lp1047
g12
ag40
ag47
asg124
g125
sa(dp1048
g192
g197
sg124
g194
sg195
F3.144827127456665
sa(dp1049
g192
g433
sg124
g198
sg195
F1.4646952152252197
sa(dp1050
g8
(lp1051
I0
aI0
asg118
(lp1052
F0.5557410717010498
aF0.5581011772155762
asg120
g121
sg75
(lp1053
g55
ag55
asg77
(lp1054
g12
ag40
ag51
asg124
g125
sa(dp1055
g8
(lp1056
I0
aI0
asg118
(lp1057
F0.9607830047607422
aF0.6885309219360352
asg120
g121
sg75
(lp1058
g55
ag24
asg77
(lp1059
g12
ag40
ag51
asg124
g125
sa(dp1060
g8
(lp1061
I0
aI1
asg118
(lp1062
F0.30834078788757324
aF0.5455009937286377
asg120
g121
sg75
(lp1063
g55
ag55
asg77
(lp1064
g12
ag33
ag47
asg124
g125
sa(dp1065
g8
(lp1066
I0
asg118
(lp1067
F0.4048440456390381
aF1.000204086303711
asg120
g272
sg75
(lp1068
g55
asg77
(lp1069
g12
ag40
asg124
g125
sa(dp1070
g8
(lp1071
I0
aI0
asg118
(lp1072
F0.28032493591308594
aF0.2749450206756592
asg120
g121
sg75
(lp1073
g55
ag24
asg77
(lp1074
g12
ag33
ag51
asg124
g125
sa(dp1075
g8
(lp1076
I0
aI1
asg118
(lp1077
F0.38291096687316895
aF0.37421584129333496
asg120
g121
sg75
(lp1078
g55
ag55
asg77
(lp1079
g12
ag40
ag47
asg124
g125
sa(dp1080
g8
(lp1081
I0
aI0
asg118
(lp1082
F0.6461188793182373
aF0.28609490394592285
asg120
g121
sg75
(lp1083
g55
ag55
asg77
(lp1084
g12
ag40
ag51
asg124
g125
sa(dp1085
g8
(lp1086
I0
aI0
asg118
(lp1087
F0.24760913848876953
aF0.2539491653442383
asg120
g121
sg75
(lp1088
g55
ag24
asg77
(lp1089
g12
ag40
ag51
asg124
g125
sa(dp1090
g8
(lp1091
I0
aI0
asg118
(lp1092
F0.29355311393737793
aF0.2557950019836426
asg120
g121
sg75
(lp1093
g55
ag55
asg77
(lp1094
g12
ag40
ag51
asg124
g125
sa(dp1095
g8
(lp1096
I0
aI1
asg118
(lp1097
F0.33130598068237305
aF0.37756800651550293
asg120
g121
sg75
(lp1098
g55
ag55
asg77
(lp1099
g12
ag40
ag47
asg124
g125
sa(dp1100
g8
(lp1101
I0
aI0
asg118
(lp1102
F0.4101109504699707
aF0.24076294898986816
asg120
g121
sg75
(lp1103
g55
ag55
asg77
(lp1104
g12
ag40
ag51
asg124
g125
sa(dp1105
g8
(lp1106
I0
aI0
asg118
(lp1107
F0.24275994300842285
aF0.10184097290039062
asg120
g121
sg75
(lp1108
g55
ag55
asg77
(lp1109
g12
ag40
ag51
asg124
g125
sa(dp1110
g8
(lp1111
I0
aI1
asg118
(lp1112
F0.4091050624847412
aF0.2302708625793457
asg120
g121
sg75
(lp1113
g55
ag24
asg77
(lp1114
g12
ag33
ag47
asg124
g125
sa(dp1115
g8
(lp1116
I0
aI1
asg118
(lp1117
F0.8446838855743408
aF0.34613895416259766
asg120
g121
sg75
(lp1118
g24
ag55
asg77
(lp1119
g12
ag33
ag47
asg124
g125
sa(dp1120
g8
(lp1121
I0
aI0
asg118
(lp1122
F0.49257397651672363
aF0.6223158836364746
asg120
g121
sg75
(lp1123
g24
ag55
asg77
(lp1124
g12
ag33
ag51
asg124
g125
sa(dp1125
g192
g433
sg124
g194
sg195
F2.0148708820343018
sa(dp1126
g192
g193
sg124
g198
sg195
F1.3539109230041504
sa(dp1127
g8
(lp1128
I0
aI1
asg118
(lp1129
F0.3701181411743164
aF0.3671720027923584
asg120
g121
sg75
(lp1130
g24
ag24
asg77
(lp1131
g12
ag33
ag47
asg124
g125
sa(dp1132
g8
(lp1133
I0
aI0
asg118
(lp1134
F0.5433540344238281
aF0.39015698432922363
asg120
g121
sg75
(lp1135
g55
ag24
asg77
(lp1136
g12
ag40
ag51
asg124
g125
sa(dp1137
g8
(lp1138
I0
aI0
asg118
(lp1139
F0.5303940773010254
aF0.44994091987609863
asg120
g121
sg75
(lp1140
g55
ag55
asg77
(lp1141
g12
ag40
ag51
asg124
g125
sa(dp1142
g8
(lp1143
I0
aI1
asg118
(lp1144
F0.5339479446411133
aF0.1934981346130371
asg120
g121
sg75
(lp1145
g24
ag24
asg77
(lp1146
g12
ag33
ag47
asg124
g125
sa(dp1147
g8
(lp1148
I0
aI1
asg118
(lp1149
F0.45232295989990234
aF0.21968698501586914
asg120
g121
sg75
(lp1150
g24
ag24
asg77
(lp1151
g12
ag40
ag47
asg124
g125
sa(dp1152
g8
(lp1153
I0
aI0
asg118
(lp1154
F0.38429999351501465
aF0.256547212600708
asg120
g121
sg75
(lp1155
g24
ag55
asg77
(lp1156
g12
ag40
ag51
asg124
g125
sa(dp1157
g8
(lp1158
I0
aI1
asg118
(lp1159
F0.3343489170074463
aF0.21343278884887695
asg120
g121
sg75
(lp1160
g24
ag24
asg77
(lp1161
g12
ag40
ag47
asg124
g125
sa(dp1162
g8
(lp1163
I0
aI0
asg118
(lp1164
F0.571038007736206
aF0.1354999542236328
asg120
g121
sg75
(lp1165
g24
ag24
asg77
(lp1166
g12
ag33
ag51
asg124
g125
sa(dp1167
g8
(lp1168
I0
aI0
asg118
(lp1169
F0.3964381217956543
aF0.6512300968170166
asg120
g121
sg75
(lp1170
g24
ag55
asg77
(lp1171
g12
ag33
ag51
asg124
g125
sa(dp1172
g8
(lp1173
I0
aI1
asg118
(lp1174
F0.32529687881469727
aF0.21907401084899902
asg120
g121
sg75
(lp1175
g55
ag24
asg77
(lp1176
g12
ag40
ag47
asg124
g125
sa(dp1177
g8
(lp1178
I0
aI1
asg118
(lp1179
F0.5567941665649414
aF0.28536200523376465
asg120
g121
sg75
(lp1180
g55
ag55
asg77
(lp1181
g12
ag33
ag47
asg124
g125
sa(dp1182
g8
(lp1183
I0
aI0
asg118
(lp1184
F0.5775778293609619
aF0.8826658725738525
asg120
g121
sg75
(lp1185
g55
ag55
asg77
(lp1186
g12
ag33
ag51
asg124
g125
sa(dp1187
g8
(lp1188
I0
aI0
asg118
(lp1189
F0.5636379718780518
aF0.36159801483154297
asg120
g121
sg75
(lp1190
g24
ag24
asg77
(lp1191
g12
ag33
ag51
asg124
g125
sa(dp1192
g8
(lp1193
I0
aI0
asg118
(lp1194
F0.5478081703186035
aF0.237623929977417
asg120
g121
sg75
(lp1195
g55
ag55
asg77
(lp1196
g12
ag40
ag51
asg124
g125
sa(dp1197
g8
(lp1198
I0
aI1
asg118
(lp1199
F0.5916938781738281
aF0.18412113189697266
asg120
g121
sg75
(lp1200
g55
ag24
asg77
(lp1201
g12
ag33
ag47
asg124
g125
sa(dp1202
g192
g433
sg124
g194
sg195
F3.382230043411255
sa(dp1203
g192
g193
sg124
g198
sg195
F1.2228529453277588
sa(dp1204
g8
(lp1205
I0
aI0
asg118
(lp1206
F0.4987452030181885
aF0.3782482147216797
asg120
g121
sg75
(lp1207
g55
ag24
asg77
(lp1208
g12
ag40
ag51
asg124
g125
satp1209
.